; Function Attrs: mustprogress uwtable
define internal fastcc noundef zeroext i1 @_ZN4dateL14sniff_realpathEPKc() unnamed_addr #7 personality ptr @__gxx_personality_v0 {
entry:
  %rp = alloca [4097 x i8], align 16
  call void @llvm.memset.p0.i64(ptr noundef nonnull align 16 dereferenceable(4097) %rp, i8 0, i64 4097, i1 false)
  %call = call ptr @realpath(ptr noundef nonnull @.str.8, ptr noundef nonnull %rp) #24
  %cmp = icmp eq ptr %call, null
  br i1 %cmp, label %if.then, label %if.end

if.then:                                          ; preds = %entry
  %exception = call ptr @__cxa_allocate_exception(i64 32) #24
  %call1 = tail call ptr @__errno_location() #28
  %0 = load i32, ptr %call1, align 4
  %call2 = tail call noundef nonnull align 8 dereferenceable(8) ptr @_ZNSt3_V215system_categoryEv() #28
  invoke void @_ZNSt12system_errorC2EiRKNSt3_V214error_categoryEPKc(ptr noundef nonnull align 8 dereferenceable(32) %exception, i32 noundef %0, ptr noundef nonnull align 8 dereferenceable(8) %call2, ptr noundef nonnull @.str.9)
          to label %invoke.cont unwind label %lpad

invoke.cont:                                      ; preds = %if.then
  call void @__cxa_throw(ptr nonnull %exception, ptr nonnull @_ZTISt12system_error, ptr nonnull @_ZNSt12system_errorD1Ev) #27
  unreachable

lpad:                                             ; preds = %if.then
  %1 = landingpad { ptr, i32 }
          cleanup
  call void @__cxa_free_exception(ptr %exception) #24
  resume { ptr, i32 } %1

if.end:                                           ; preds = %entry
  %call4 = call fastcc { i64, ptr } @_ZN4dateL15extract_tz_nameEPKc(ptr noundef nonnull %rp)
  %2 = extractvalue { i64, ptr } %call4, 0
  %cmp.i.i = icmp eq i64 %2, 10
  br i1 %cmp.i.i, label %_ZNSt11char_traitsIcE7compareEPKcS2_m.exit.i.i.i, label %_ZStneIcSt11char_traitsIcEEbSt17basic_string_viewIT_T0_ENSt15__type_identityIS5_E4typeE.exit

_ZNSt11char_traitsIcE7compareEPKcS2_m.exit.i.i.i: ; preds = %if.end
  %3 = extractvalue { i64, ptr } %call4, 1
  %bcmp.i.i = call i32 @bcmp(ptr noundef nonnull dereferenceable(10) %3, ptr noundef nonnull dereferenceable(10) @.str.39, i64 10)
  %cmp.i.i.i = icmp ne i32 %bcmp.i.i, 0
  br label %_ZStneIcSt11char_traitsIcEEbSt17basic_string_viewIT_T0_ENSt15__type_identityIS5_E4typeE.exit

_ZStneIcSt11char_traitsIcEEbSt17basic_string_viewIT_T0_ENSt15__type_identityIS5_E4typeE.exit: ; preds = %_ZNSt11char_traitsIcE7compareEPKcS2_m.exit.i.i.i, %if.end
  %lnot.i = phi i1 [ true, %if.end ], [ %cmp.i.i.i, %_ZNSt11char_traitsIcE7compareEPKcS2_m.exit.i.i.i ]
  ret i1 %lnot.i
}